target datalayout = "e-m:e-p270:32:32-p271:32:32-p272:64:64-i64:64-i128:128-f80:128-n8:16:32:64-S128"
target triple = "x86_64-pc-linux-gnu"

; Function Attrs: nounwind uwtable
define internal double @compute_peak_dbl(ptr noundef %0, double noundef %1, double noundef %2, i32 noundef %3, ptr noundef %4, ptr noundef %5) #2 {
  %7 = alloca ptr, align 8
  %8 = alloca double, align 8
  %9 = alloca double, align 8
  %10 = alloca i32, align 4
  %11 = alloca ptr, align 8
  %12 = alloca ptr, align 8
  %13 = alloca double, align 8
  %14 = alloca double, align 8
  %15 = alloca i32, align 4
  %16 = alloca i32, align 4
  %17 = alloca i32, align 4
  store ptr %0, ptr %7, align 8, !tbaa !100
  store double %1, ptr %8, align 8, !tbaa !101
  store double %2, ptr %9, align 8, !tbaa !101
  store i32 %3, ptr %10, align 4, !tbaa !35
  store ptr %4, ptr %11, align 8, !tbaa !99
  store ptr %5, ptr %12, align 8, !tbaa !99
  call void @llvm.lifetime.start.p0(i64 8, ptr %13) #7
  call void @llvm.lifetime.start.p0(i64 8, ptr %14) #7
  %18 = load double, ptr %8, align 8, !tbaa !101
  %19 = call nsz double @llvm.fabs.f64(double %18)
  store double %19, ptr %14, align 8, !tbaa !101
  call void @llvm.lifetime.start.p0(i64 4, ptr %15) #7
  %20 = load ptr, ptr %11, align 8, !tbaa !99
  %21 = load i32, ptr %20, align 4, !tbaa !35
  store i32 %21, ptr %15, align 4, !tbaa !35
  call void @llvm.lifetime.start.p0(i64 4, ptr %16) #7
  %22 = load ptr, ptr %12, align 8, !tbaa !99
  %23 = load i32, ptr %22, align 4, !tbaa !35
  store i32 %23, ptr %16, align 4, !tbaa !35
  call void @llvm.lifetime.start.p0(i64 4, ptr %17) #7
  %24 = load i32, ptr %15, align 4, !tbaa !35
  %25 = load i32, ptr %16, align 4, !tbaa !35
  %26 = icmp eq i32 %24, %25
  br i1 %26, label %27, label %34

27:                                               ; preds = %6
  %28 = load ptr, ptr %7, align 8, !tbaa !100
  %29 = load i32, ptr %15, align 4, !tbaa !35
  %30 = sext i32 %29 to i64
  %31 = getelementptr inbounds double, ptr %28, i64 %30
  %32 = load double, ptr %31, align 8, !tbaa !101
  %33 = fcmp nsz oeq double %32, 0.000000e+00
  br label %34

34:                                               ; preds = %27, %6
  %35 = phi i1 [ false, %6 ], [ %33, %27 ]
  %36 = zext i1 %35 to i32
  store i32 %36, ptr %17, align 4, !tbaa !35
  %37 = load i32, ptr %17, align 4, !tbaa !35
  %38 = icmp ne i32 %37, 0
  br i1 %38, label %70, label %39

39:                                               ; preds = %34
  %40 = load double, ptr %9, align 8, !tbaa !101
  %41 = call nsz double @llvm.fabs.f64(double %40)
  %42 = load ptr, ptr %7, align 8, !tbaa !100
  %43 = load i32, ptr %15, align 4, !tbaa !35
  %44 = sext i32 %43 to i64
  %45 = getelementptr inbounds double, ptr %42, i64 %44
  %46 = load double, ptr %45, align 8, !tbaa !101
  %47 = fcmp nsz oeq double %41, %46
  br i1 %47, label %48, label %70

48:                                               ; preds = %39
  %49 = load ptr, ptr %7, align 8, !tbaa !100
  %50 = load i32, ptr %15, align 4, !tbaa !35
  %51 = sext i32 %50 to i64
  %52 = getelementptr inbounds double, ptr %49, i64 %51
  store double 0.000000e+00, ptr %52, align 8, !tbaa !101
  %53 = load i32, ptr %16, align 4, !tbaa !35
  %54 = load i32, ptr %15, align 4, !tbaa !35
  %55 = icmp ne i32 %53, %54
  br i1 %55, label %56, label %65

56:                                               ; preds = %48
  %57 = load i32, ptr %15, align 4, !tbaa !35
  %58 = add nsw i32 %57, -1
  store i32 %58, ptr %15, align 4, !tbaa !35
  %59 = load i32, ptr %15, align 4, !tbaa !35
  %60 = icmp slt i32 %59, 0
  br i1 %60, label %61, label %64

61:                                               ; preds = %56
  %62 = load i32, ptr %10, align 4, !tbaa !35
  %63 = sub nsw i32 %62, 1
  store i32 %63, ptr %15, align 4, !tbaa !35
  br label %64

64:                                               ; preds = %61, %56
  br label %65

65:                                               ; preds = %64, %48
  %66 = load i32, ptr %15, align 4, !tbaa !35
  %67 = load i32, ptr %16, align 4, !tbaa !35
  %68 = icmp eq i32 %66, %67
  %69 = zext i1 %68 to i32
  store i32 %69, ptr %17, align 4, !tbaa !35
  br label %70

70:                                               ; preds = %65, %39, %34
  %71 = load i32, ptr %17, align 4, !tbaa !35
  %72 = icmp ne i32 %71, 0
  br i1 %72, label %102, label %73

73:                                               ; preds = %70
  %74 = load double, ptr %14, align 8, !tbaa !101
  %75 = load ptr, ptr %7, align 8, !tbaa !100
  %76 = load i32, ptr %15, align 4, !tbaa !35
  %77 = sext i32 %76 to i64
  %78 = getelementptr inbounds double, ptr %75, i64 %77
  %79 = load double, ptr %78, align 8, !tbaa !101
  %80 = fcmp nsz oge double %74, %79
  br i1 %80, label %81, label %102

81:                                               ; preds = %73
  br label %82

82:                                               ; preds = %100, %81
  br label %83

83:                                               ; preds = %82
  %84 = load ptr, ptr %7, align 8, !tbaa !100
  %85 = load i32, ptr %15, align 4, !tbaa !35
  %86 = sext i32 %85 to i64
  %87 = getelementptr inbounds double, ptr %84, i64 %86
  store double 0.000000e+00, ptr %87, align 8, !tbaa !101
  %88 = load i32, ptr %16, align 4, !tbaa !35
  %89 = load i32, ptr %15, align 4, !tbaa !35
  %90 = icmp eq i32 %88, %89
  br i1 %90, label %91, label %92

91:                                               ; preds = %83
  store i32 1, ptr %17, align 4, !tbaa !35
  br label %101

92:                                               ; preds = %83
  %93 = load i32, ptr %15, align 4, !tbaa !35
  %94 = add nsw i32 %93, -1
  store i32 %94, ptr %15, align 4, !tbaa !35
  %95 = load i32, ptr %15, align 4, !tbaa !35
  %96 = icmp slt i32 %95, 0
  br i1 %96, label %97, label %100

97:                                               ; preds = %92
  %98 = load i32, ptr %10, align 4, !tbaa !35
  %99 = sub nsw i32 %98, 1
  store i32 %99, ptr %15, align 4, !tbaa !35
  br label %100

100:                                              ; preds = %97, %92
  br label %82

101:                                              ; preds = %91
  br label %102

102:                                              ; preds = %101, %73, %70
  br label %103

103:                                              ; preds = %132, %102
  %104 = load i32, ptr %17, align 4, !tbaa !35
  %105 = icmp ne i32 %104, 0
  br i1 %105, label %114, label %106

106:                                              ; preds = %103
  %107 = load double, ptr %14, align 8, !tbaa !101
  %108 = load ptr, ptr %7, align 8, !tbaa !100
  %109 = load i32, ptr %16, align 4, !tbaa !35
  %110 = sext i32 %109 to i64
  %111 = getelementptr inbounds double, ptr %108, i64 %110
  %112 = load double, ptr %111, align 8, !tbaa !101
  %113 = fcmp nsz oge double %107, %112
  br label %114

114:                                              ; preds = %106, %103
  %115 = phi i1 [ false, %103 ], [ %113, %106 ]
  br i1 %115, label %116, label %133

116:                                              ; preds = %114
  %117 = load ptr, ptr %7, align 8, !tbaa !100
  %118 = load i32, ptr %16, align 4, !tbaa !35
  %119 = sext i32 %118 to i64
  %120 = getelementptr inbounds double, ptr %117, i64 %119
  store double 0.000000e+00, ptr %120, align 8, !tbaa !101
  %121 = load i32, ptr %16, align 4, !tbaa !35
  %122 = load i32, ptr %15, align 4, !tbaa !35
  %123 = icmp eq i32 %121, %122
  br i1 %123, label %124, label %125

124:                                              ; preds = %116
  store i32 1, ptr %17, align 4, !tbaa !35
  br label %133

125:                                              ; preds = %116
  %126 = load i32, ptr %16, align 4, !tbaa !35
  %127 = add nsw i32 %126, 1
  store i32 %127, ptr %16, align 4, !tbaa !35
  %128 = load i32, ptr %16, align 4, !tbaa !35
  %129 = load i32, ptr %10, align 4, !tbaa !35
  %130 = icmp sge i32 %128, %129
  br i1 %130, label %131, label %132

131:                                              ; preds = %125
  store i32 0, ptr %16, align 4, !tbaa !35
  br label %132

132:                                              ; preds = %131, %125
  br label %103, !llvm.loop !108

133:                                              ; preds = %124, %114
  %134 = load i32, ptr %17, align 4, !tbaa !35
  %135 = icmp ne i32 %134, 0
  br i1 %135, label %145, label %136

136:                                              ; preds = %133
  %137 = load i32, ptr %16, align 4, !tbaa !35
  %138 = add nsw i32 %137, -1
  store i32 %138, ptr %16, align 4, !tbaa !35
  %139 = load i32, ptr %16, align 4, !tbaa !35
  %140 = icmp slt i32 %139, 0
  br i1 %140, label %141, label %144

141:                                              ; preds = %136
  %142 = load i32, ptr %10, align 4, !tbaa !35
  %143 = sub nsw i32 %142, 1
  store i32 %143, ptr %16, align 4, !tbaa !35
  br label %144

144:                                              ; preds = %141, %136
  br label %145

145:                                              ; preds = %144, %133
  %146 = load double, ptr %14, align 8, !tbaa !101
  %147 = load ptr, ptr %7, align 8, !tbaa !100
  %148 = load i32, ptr %16, align 4, !tbaa !35
  %149 = sext i32 %148 to i64
  %150 = getelementptr inbounds double, ptr %147, i64 %149
  store double %146, ptr %150, align 8, !tbaa !101
  %151 = load ptr, ptr %7, align 8, !tbaa !100
  %152 = load i32, ptr %15, align 4, !tbaa !35
  %153 = sext i32 %152 to i64
  %154 = getelementptr inbounds double, ptr %151, i64 %153
  %155 = load double, ptr %154, align 8, !tbaa !101
  store double %155, ptr %13, align 8, !tbaa !101
  %156 = load i32, ptr %15, align 4, !tbaa !35
  %157 = load ptr, ptr %11, align 8, !tbaa !99
  store i32 %156, ptr %157, align 4, !tbaa !35
  %158 = load i32, ptr %16, align 4, !tbaa !35
  %159 = load ptr, ptr %12, align 8, !tbaa !99
  store i32 %158, ptr %159, align 4, !tbaa !35
  %160 = load double, ptr %13, align 8, !tbaa !101
  call void @llvm.lifetime.end.p0(i64 4, ptr %17) #7
  call void @llvm.lifetime.end.p0(i64 4, ptr %16) #7
  call void @llvm.lifetime.end.p0(i64 4, ptr %15) #7
  call void @llvm.lifetime.end.p0(i64 8, ptr %14) #7
  call void @llvm.lifetime.end.p0(i64 8, ptr %13) #7
  ret double %160
}