; Function Attrs: nofree norecurse nosync nounwind memory(argmem: readwrite) uwtable
define internal double @compute_peak_dbl(ptr noundef captures(none) %0, double noundef %1, double noundef %2, i32 noundef %3, ptr noundef captures(none) %4, ptr noundef captures(none) %5) #8 {
  %7 = tail call nsz double @llvm.fabs.f64(double %1)
  %8 = load i32, ptr %4, align 4, !tbaa !52
  %9 = load i32, ptr %5, align 4, !tbaa !52
  %10 = icmp eq i32 %8, %9
  %11 = sext i32 %8 to i64
  %12 = getelementptr inbounds double, ptr %0, i64 %11
  %13 = load double, ptr %12, align 8, !tbaa !101
  %14 = fcmp nsz oeq double %13, 0.000000e+00
  %or.cond = select i1 %10, i1 %14, i1 false
  br i1 %or.cond, label %.critedge70, label %.thread

.thread:                                          ; preds = %6
  %15 = tail call nsz double @llvm.fabs.f64(double %2)
  %16 = fcmp nsz oeq double %15, %13
  br i1 %16, label %17, label %.thread75

17:                                               ; preds = %.thread
  %18 = getelementptr inbounds double, ptr %0, i64 %11
  store double 0.000000e+00, ptr %18, align 8, !tbaa !101
  %19 = icmp slt i32 %8, 1
  %spec.select.v = select i1 %19, i32 %3, i32 %8
  %spec.select = add nsw i32 %spec.select.v, -1
  %.158 = select i1 %10, i32 %8, i32 %spec.select
  %20 = icmp eq i32 %.158, %9
  br i1 %20, label %.critedge70, label %..thread75_crit_edge

..thread75_crit_edge:                             ; preds = %17
  %.phi.trans.insert92 = sext i32 %.158 to i64
  %.phi.trans.insert93 = getelementptr inbounds double, ptr %0, i64 %.phi.trans.insert92
  %.pre94 = load double, ptr %.phi.trans.insert93, align 8, !tbaa !101
  br label %.thread75

.thread75:                                        ; preds = %..thread75_crit_edge, %.thread
  %.pre-phi95 = phi i64 [ %.phi.trans.insert92, %..thread75_crit_edge ], [ %11, %.thread ]
  %21 = phi double [ %.pre94, %..thread75_crit_edge ], [ %13, %.thread ]
  %.05778 = phi i32 [ %.158, %..thread75_crit_edge ], [ %8, %.thread ]
  %22 = fcmp nsz ult double %7, %21
  br i1 %22, label %.lr.ph82.split.us, label %.preheader

.preheader:                                       ; preds = %.thread75
  %23 = getelementptr inbounds double, ptr %0, i64 %.pre-phi95
  store double 0.000000e+00, ptr %23, align 8, !tbaa !101
  %24 = icmp eq i32 %9, %.05778
  br i1 %24, label %.critedge70, label %.lr.ph

.lr.ph:                                           ; preds = %.preheader, %.lr.ph
  %.380 = phi i32 [ %.4, %.lr.ph ], [ %.05778, %.preheader ]
  %25 = icmp slt i32 %.380, 1
  %spec.select69 = select i1 %25, i32 %3, i32 %.380
  %.4 = add nsw i32 %spec.select69, -1
  %26 = sext i32 %.4 to i64
  %27 = getelementptr inbounds double, ptr %0, i64 %26
  store double 0.000000e+00, ptr %27, align 8, !tbaa !101
  %28 = icmp eq i32 %9, %.4
  br i1 %28, label %.critedge70, label %.lr.ph

.lr.ph82.split.us:                                ; preds = %.thread75
  %29 = sext i32 %9 to i64
  %30 = getelementptr inbounds double, ptr %0, i64 %29
  %31 = load double, ptr %30, align 8, !tbaa !101
  %32 = fcmp nsz ult double %7, %31
  br i1 %32, label %.critedge, label %.lr.ph88

.lr.ph88:                                         ; preds = %.lr.ph82.split.us, %35
  %33 = phi ptr [ %38, %35 ], [ %30, %.lr.ph82.split.us ]
  %.05581.us87 = phi i32 [ %spec.store.select.us, %35 ], [ %9, %.lr.ph82.split.us ]
  store double 0.000000e+00, ptr %33, align 8, !tbaa !101
  %34 = icmp eq i32 %.05581.us87, %.05778
  br i1 %34, label %.critedge70, label %35

35:                                               ; preds = %.lr.ph88
  %36 = add nsw i32 %.05581.us87, 1
  %.not67.us = icmp slt i32 %36, %3
  %spec.store.select.us = select i1 %.not67.us, i32 %36, i32 0
  %37 = sext i32 %spec.store.select.us to i64
  %38 = getelementptr inbounds double, ptr %0, i64 %37
  %39 = load double, ptr %38, align 8, !tbaa !101
  %40 = fcmp nsz ult double %7, %39
  br i1 %40, label %.critedge, label %.lr.ph88

.critedge:                                        ; preds = %35, %.lr.ph82.split.us
  %.us-phi = phi i32 [ %9, %.lr.ph82.split.us ], [ %spec.store.select.us, %35 ]
  %41 = icmp slt i32 %.us-phi, 1
  %spec.select71.v = select i1 %41, i32 %3, i32 %.us-phi
  %spec.select71 = add nsw i32 %spec.select71.v, -1
  br label %.critedge70

.critedge70:                                      ; preds = %.lr.ph, %.lr.ph88, %6, %.preheader, %17, %.critedge
  %.25998 = phi i32 [ %.05778, %.critedge ], [ %9, %.preheader ], [ %9, %17 ], [ %8, %6 ], [ %.05778, %.lr.ph88 ], [ %9, %.lr.ph ]
  %.156 = phi i32 [ %spec.select71, %.critedge ], [ %9, %.preheader ], [ %9, %17 ], [ %9, %6 ], [ %.05778, %.lr.ph88 ], [ %9, %.lr.ph ]
  %42 = sext i32 %.156 to i64
  %43 = getelementptr inbounds double, ptr %0, i64 %42
  store double %7, ptr %43, align 8, !tbaa !101
  %44 = sext i32 %.25998 to i64
  %45 = getelementptr inbounds double, ptr %0, i64 %44
  %46 = load double, ptr %45, align 8, !tbaa !101
  store i32 %.25998, ptr %4, align 4, !tbaa !52
  store i32 %.156, ptr %5, align 4, !tbaa !52
  ret double %46
}